target datalayout = "e-m:e-p270:32:32-p271:32:32-p272:64:64-i64:64-i128:128-f80:128-n8:16:32:64-S128"
target triple = "x86_64-pc-linux-gnu"

; Function Attrs: nounwind uwtable
define hidden i32 @mbedtls_aria_crypt_cfb128(ptr noundef %0, i32 noundef %1, i64 noundef %2, ptr noundef %3, ptr noundef %4, ptr noundef %5, ptr noundef %6) #0 {
  %8 = alloca i32, align 4
  %9 = alloca ptr, align 8
  %10 = alloca i32, align 4
  %11 = alloca i64, align 8
  %12 = alloca ptr, align 8
  %13 = alloca ptr, align 8
  %14 = alloca ptr, align 8
  %15 = alloca ptr, align 8
  %16 = alloca i8, align 1
  %17 = alloca i64, align 8
  %18 = alloca i32, align 4
  store ptr %0, ptr %9, align 8, !tbaa !3
  store i32 %1, ptr %10, align 4, !tbaa !10
  store i64 %2, ptr %11, align 8, !tbaa !24
  store ptr %3, ptr %12, align 8, !tbaa !30
  store ptr %4, ptr %13, align 8, !tbaa !8
  store ptr %5, ptr %14, align 8, !tbaa !8
  store ptr %6, ptr %15, align 8, !tbaa !8
  call void @llvm.lifetime.start.p0(i64 1, ptr %16) #9
  call void @llvm.lifetime.start.p0(i64 8, ptr %17) #9
  %19 = load i32, ptr %10, align 4, !tbaa !10
  %20 = icmp ne i32 %19, 1
  br i1 %20, label %21, label %25

21:                                               ; preds = %7
  %22 = load i32, ptr %10, align 4, !tbaa !10
  %23 = icmp ne i32 %22, 0
  br i1 %23, label %24, label %25

24:                                               ; preds = %21
  store i32 -92, ptr %8, align 4
  store i32 1, ptr %18, align 4
  br label %107

25:                                               ; preds = %21, %7
  %26 = load ptr, ptr %12, align 8, !tbaa !30
  %27 = load i64, ptr %26, align 8, !tbaa !24
  store i64 %27, ptr %17, align 8, !tbaa !24
  %28 = load i64, ptr %17, align 8, !tbaa !24
  %29 = icmp uge i64 %28, 16
  br i1 %29, label %30, label %31

30:                                               ; preds = %25
  store i32 -92, ptr %8, align 4
  store i32 1, ptr %18, align 4
  br label %107

31:                                               ; preds = %25
  %32 = load i32, ptr %10, align 4, !tbaa !10
  %33 = icmp eq i32 %32, 0
  br i1 %33, label %34, label %70

34:                                               ; preds = %31
  br label %35

35:                                               ; preds = %47, %34
  %36 = load i64, ptr %11, align 8, !tbaa !24
  %37 = add i64 %36, -1
  store i64 %37, ptr %11, align 8, !tbaa !24
  %38 = icmp ne i64 %36, 0
  br i1 %38, label %39, label %69

39:                                               ; preds = %35
  %40 = load i64, ptr %17, align 8, !tbaa !24
  %41 = icmp eq i64 %40, 0
  br i1 %41, label %42, label %47

42:                                               ; preds = %39
  %43 = load ptr, ptr %9, align 8, !tbaa !3
  %44 = load ptr, ptr %13, align 8, !tbaa !8
  %45 = load ptr, ptr %13, align 8, !tbaa !8
  %46 = call i32 @mbedtls_aria_crypt_ecb(ptr noundef %43, ptr noundef %44, ptr noundef %45)
  br label %47

47:                                               ; preds = %42, %39
  %48 = load ptr, ptr %14, align 8, !tbaa !8
  %49 = getelementptr inbounds nuw i8, ptr %48, i32 1
  store ptr %49, ptr %14, align 8, !tbaa !8
  %50 = load i8, ptr %48, align 1, !tbaa !19
  store i8 %50, ptr %16, align 1, !tbaa !19
  %51 = load i8, ptr %16, align 1, !tbaa !19
  %52 = zext i8 %51 to i32
  %53 = load ptr, ptr %13, align 8, !tbaa !8
  %54 = load i64, ptr %17, align 8, !tbaa !24
  %55 = getelementptr inbounds nuw i8, ptr %53, i64 %54
  %56 = load i8, ptr %55, align 1, !tbaa !19
  %57 = zext i8 %56 to i32
  %58 = xor i32 %52, %57
  %59 = trunc i32 %58 to i8
  %60 = load ptr, ptr %15, align 8, !tbaa !8
  %61 = getelementptr inbounds nuw i8, ptr %60, i32 1
  store ptr %61, ptr %15, align 8, !tbaa !8
  store i8 %59, ptr %60, align 1, !tbaa !19
  %62 = load i8, ptr %16, align 1, !tbaa !19
  %63 = load ptr, ptr %13, align 8, !tbaa !8
  %64 = load i64, ptr %17, align 8, !tbaa !24
  %65 = getelementptr inbounds nuw i8, ptr %63, i64 %64
  store i8 %62, ptr %65, align 1, !tbaa !19
  %66 = load i64, ptr %17, align 8, !tbaa !24
  %67 = add i64 %66, 1
  %68 = and i64 %67, 15
  store i64 %68, ptr %17, align 8, !tbaa !24
  br label %35, !llvm.loop !32

69:                                               ; preds = %35
  br label %104

70:                                               ; preds = %31
  br label %71

71:                                               ; preds = %83, %70
  %72 = load i64, ptr %11, align 8, !tbaa !24
  %73 = add i64 %72, -1
  store i64 %73, ptr %11, align 8, !tbaa !24
  %74 = icmp ne i64 %72, 0
  br i1 %74, label %75, label %103

75:                                               ; preds = %71
  %76 = load i64, ptr %17, align 8, !tbaa !24
  %77 = icmp eq i64 %76, 0
  br i1 %77, label %78, label %83

78:                                               ; preds = %75
  %79 = load ptr, ptr %9, align 8, !tbaa !3
  %80 = load ptr, ptr %13, align 8, !tbaa !8
  %81 = load ptr, ptr %13, align 8, !tbaa !8
  %82 = call i32 @mbedtls_aria_crypt_ecb(ptr noundef %79, ptr noundef %80, ptr noundef %81)
  br label %83

83:                                               ; preds = %78, %75
  %84 = load ptr, ptr %13, align 8, !tbaa !8
  %85 = load i64, ptr %17, align 8, !tbaa !24
  %86 = getelementptr inbounds nuw i8, ptr %84, i64 %85
  %87 = load i8, ptr %86, align 1, !tbaa !19
  %88 = zext i8 %87 to i32
  %89 = load ptr, ptr %14, align 8, !tbaa !8
  %90 = getelementptr inbounds nuw i8, ptr %89, i32 1
  store ptr %90, ptr %14, align 8, !tbaa !8
  %91 = load i8, ptr %89, align 1, !tbaa !19
  %92 = zext i8 %91 to i32
  %93 = xor i32 %88, %92
  %94 = trunc i32 %93 to i8
  %95 = load ptr, ptr %15, align 8, !tbaa !8
  %96 = getelementptr inbounds nuw i8, ptr %95, i32 1
  store ptr %96, ptr %15, align 8, !tbaa !8
  store i8 %94, ptr %95, align 1, !tbaa !19
  %97 = load ptr, ptr %13, align 8, !tbaa !8
  %98 = load i64, ptr %17, align 8, !tbaa !24
  %99 = getelementptr inbounds nuw i8, ptr %97, i64 %98
  store i8 %94, ptr %99, align 1, !tbaa !19
  %100 = load i64, ptr %17, align 8, !tbaa !24
  %101 = add i64 %100, 1
  %102 = and i64 %101, 15
  store i64 %102, ptr %17, align 8, !tbaa !24
  br label %71, !llvm.loop !33

103:                                              ; preds = %71
  br label %104

104:                                              ; preds = %103, %69
  %105 = load i64, ptr %17, align 8, !tbaa !24
  %106 = load ptr, ptr %12, align 8, !tbaa !30
  store i64 %105, ptr %106, align 8, !tbaa !24
  store i32 0, ptr %8, align 4
  store i32 1, ptr %18, align 4
  br label %107

107:                                              ; preds = %104, %30, %24
  call void @llvm.lifetime.end.p0(i64 8, ptr %17) #9
  call void @llvm.lifetime.end.p0(i64 1, ptr %16) #9
  %108 = load i32, ptr %8, align 4
  ret i32 %108
}