; Function Attrs: nofree norecurse nosync nounwind memory(argmem: readwrite) uwtable
define hidden range(i32 -92, 1) i32 @mbedtls_aria_crypt_cfb128(ptr noundef readonly captures(none) %0, i32 noundef %1, i64 noundef %2, ptr noundef captures(none) %3, ptr noundef captures(none) %4, ptr noundef readonly captures(none) %5, ptr noundef writeonly captures(none) %6) local_unnamed_addr #6 {
  %or.cond = icmp ugt i32 %1, 1
  br i1 %or.cond, label %39, label %8

8:                                                ; preds = %7
  %9 = load i64, ptr %3, align 8, !tbaa !18
  %10 = icmp ugt i64 %9, 15
  br i1 %10, label %39, label %11

11:                                               ; preds = %8
  %12 = icmp eq i32 %1, 0
  %.not4249 = icmp eq i64 %2, 0
  br i1 %12, label %.preheader, label %.preheader43

.preheader43:                                     ; preds = %11
  br i1 %.not4249, label %.loopexit, label %.lr.ph

.preheader:                                       ; preds = %11
  br i1 %.not4249, label %.loopexit, label %.lr.ph53

.lr.ph53:                                         ; preds = %.preheader, %17
  %.in55 = phi i64 [ %13, %17 ], [ %2, %.preheader ]
  %.052 = phi i64 [ %25, %17 ], [ %9, %.preheader ]
  %.03551 = phi ptr [ %23, %17 ], [ %6, %.preheader ]
  %.03750 = phi ptr [ %18, %17 ], [ %5, %.preheader ]
  %13 = add i64 %.in55, -1
  %14 = icmp eq i64 %.052, 0
  br i1 %14, label %15, label %17

15:                                               ; preds = %.lr.ph53
  %16 = tail call i32 @mbedtls_aria_crypt_ecb(ptr noundef %0, ptr noundef %4, ptr noundef %4)
  br label %17

17:                                               ; preds = %15, %.lr.ph53
  %18 = getelementptr inbounds nuw i8, ptr %.03750, i64 1
  %19 = load i8, ptr %.03750, align 1, !tbaa !9
  %20 = getelementptr inbounds nuw i8, ptr %4, i64 %.052
  %21 = load i8, ptr %20, align 1, !tbaa !9
  %22 = xor i8 %21, %19
  %23 = getelementptr inbounds nuw i8, ptr %.03551, i64 1
  store i8 %22, ptr %.03551, align 1, !tbaa !9
  store i8 %19, ptr %20, align 1, !tbaa !9
  %24 = add nuw nsw i64 %.052, 1
  %25 = and i64 %24, 15
  %.not42 = icmp eq i64 %13, 0
  br i1 %.not42, label %.loopexit, label %.lr.ph53, !llvm.loop !20

.lr.ph:                                           ; preds = %.preheader43, %30
  %.in = phi i64 [ %26, %30 ], [ %2, %.preheader43 ]
  %.248 = phi i64 [ %38, %30 ], [ %9, %.preheader43 ]
  %.13647 = phi ptr [ %36, %30 ], [ %6, %.preheader43 ]
  %.13846 = phi ptr [ %33, %30 ], [ %5, %.preheader43 ]
  %26 = add i64 %.in, -1
  %27 = icmp eq i64 %.248, 0
  br i1 %27, label %28, label %30

28:                                               ; preds = %.lr.ph
  %29 = tail call i32 @mbedtls_aria_crypt_ecb(ptr noundef %0, ptr noundef %4, ptr noundef %4)
  br label %30

30:                                               ; preds = %28, %.lr.ph
  %31 = getelementptr inbounds nuw i8, ptr %4, i64 %.248
  %32 = load i8, ptr %31, align 1, !tbaa !9
  %33 = getelementptr inbounds nuw i8, ptr %.13846, i64 1
  %34 = load i8, ptr %.13846, align 1, !tbaa !9
  %35 = xor i8 %34, %32
  %36 = getelementptr inbounds nuw i8, ptr %.13647, i64 1
  store i8 %35, ptr %.13647, align 1, !tbaa !9
  store i8 %35, ptr %31, align 1, !tbaa !9
  %37 = add nuw nsw i64 %.248, 1
  %38 = and i64 %37, 15
  %.not = icmp eq i64 %26, 0
  br i1 %.not, label %.loopexit, label %.lr.ph, !llvm.loop !21

.loopexit:                                        ; preds = %30, %17, %.preheader43, %.preheader
  %.1 = phi i64 [ %9, %.preheader ], [ %9, %.preheader43 ], [ %25, %17 ], [ %38, %30 ]
  store i64 %.1, ptr %3, align 8, !tbaa !18
  br label %39

39:                                               ; preds = %8, %7, %.loopexit
  %.034 = phi i32 [ 0, %.loopexit ], [ -92, %7 ], [ -92, %8 ]
  ret i32 %.034
}